target datalayout = "e-m:e-p270:32:32-p271:32:32-p272:64:64-i64:64-i128:128-f80:128-n8:16:32:64-S128"
target triple = "x86_64-pc-linux-gnu"

%struct.context = type { ptr, ptr, ptr, ptr, ptr, ptr, ptr, i32, i32, i8 }
%struct._zend_ssa = type { %struct._zend_cfg, i32, i32, ptr, ptr, ptr, ptr }
%struct._zend_cfg = type { i32, i32, ptr, ptr, ptr, i32 }
%struct._zend_op_array = type { i8, [3 x i8], i32, ptr, ptr, ptr, i32, i32, ptr, ptr, ptr, ptr, i32, i32, i32, i32, ptr, ptr, ptr, ptr, ptr, i32, i32, ptr, ptr, ptr, i32, i32, i32, i32, ptr, ptr, [6 x ptr] }
%struct._zend_ssa_var = type { i32, i32, i32, i32, ptr, ptr, ptr, i8 }
%struct._zend_op = type { ptr, %union._znode_op, %union._znode_op, %union._znode_op, i32, i32, i8, i8, i8, i8 }
%union._znode_op = type { i32 }
%struct._zend_ssa_op = type { i32, i32, i32, i32, i32, i32, i32, i32, i32 }

; Function Attrs: nounwind uwtable
define internal zeroext i1 @try_remove_var_def(ptr noundef %0, i32 noundef %1, i32 noundef %2, ptr noundef %3) #0 {
  %5 = alloca i1, align 1
  %6 = alloca ptr, align 8
  %7 = alloca i32, align 4
  %8 = alloca i32, align 4
  %9 = alloca ptr, align 8
  %10 = alloca ptr, align 8
  %11 = alloca i32, align 4
  %12 = alloca ptr, align 8
  %13 = alloca ptr, align 8
  store ptr %0, ptr %6, align 8
  store i32 %1, ptr %7, align 4
  store i32 %2, ptr %8, align 4
  store ptr %3, ptr %9, align 8
  %14 = load i32, ptr %8, align 4
  %15 = icmp sge i32 %14, 0
  br i1 %15, label %16, label %17

16:                                               ; preds = %4
  store i1 false, ptr %5, align 1
  br label %92

17:                                               ; preds = %4
  %18 = load ptr, ptr %6, align 8
  %19 = getelementptr inbounds %struct.context, ptr %18, i32 0, i32 0
  %20 = load ptr, ptr %19, align 8
  %21 = getelementptr inbounds %struct._zend_ssa, ptr %20, i32 0, i32 5
  %22 = load ptr, ptr %21, align 8
  %23 = load i32, ptr %7, align 4
  %24 = sext i32 %23 to i64
  %25 = getelementptr inbounds %struct._zend_ssa_var, ptr %22, i64 %24
  store ptr %25, ptr %10, align 8
  %26 = load ptr, ptr %10, align 8
  %27 = getelementptr inbounds %struct._zend_ssa_var, ptr %26, i32 0, i32 2
  %28 = load i32, ptr %27, align 8
  store i32 %28, ptr %11, align 4
  %29 = load i32, ptr %11, align 4
  %30 = icmp sge i32 %29, 0
  br i1 %30, label %31, label %91

31:                                               ; preds = %17
  %32 = load ptr, ptr %6, align 8
  %33 = getelementptr inbounds %struct.context, ptr %32, i32 0, i32 0
  %34 = load ptr, ptr %33, align 8
  %35 = getelementptr inbounds %struct._zend_ssa, ptr %34, i32 0, i32 4
  %36 = load ptr, ptr %35, align 8
  %37 = load i32, ptr %11, align 4
  %38 = sext i32 %37 to i64
  %39 = getelementptr inbounds %struct._zend_ssa_op, ptr %36, i64 %38
  store ptr %39, ptr %12, align 8
  %40 = load ptr, ptr %12, align 8
  %41 = getelementptr inbounds %struct._zend_ssa_op, ptr %40, i32 0, i32 5
  %42 = load i32, ptr %41, align 4
  %43 = load i32, ptr %7, align 4
  %44 = icmp eq i32 %42, %43
  br i1 %44, label %45, label %90

45:                                               ; preds = %31
  %46 = load ptr, ptr %10, align 8
  %47 = getelementptr inbounds %struct._zend_ssa_var, ptr %46, i32 0, i32 5
  %48 = load ptr, ptr %47, align 8
  %49 = icmp eq ptr %48, null
  br i1 %49, label %50, label %90

50:                                               ; preds = %45
  %51 = load ptr, ptr %10, align 8
  %52 = getelementptr inbounds %struct._zend_ssa_var, ptr %51, i32 0, i32 3
  %53 = load i32, ptr %52, align 4
  %54 = sext i32 %53 to i64
  %55 = load ptr, ptr %9, align 8
  %56 = load ptr, ptr %6, align 8
  %57 = getelementptr inbounds %struct.context, ptr %56, i32 0, i32 1
  %58 = load ptr, ptr %57, align 8
  %59 = getelementptr inbounds %struct._zend_op_array, ptr %58, i32 0, i32 16
  %60 = load ptr, ptr %59, align 8
  %61 = ptrtoint ptr %55 to i64
  %62 = ptrtoint ptr %60 to i64
  %63 = sub i64 %61, %62
  %64 = sdiv exact i64 %63, 32
  %65 = icmp eq i64 %54, %64
  br i1 %65, label %66, label %90

66:                                               ; preds = %50
  %67 = load ptr, ptr %6, align 8
  %68 = getelementptr inbounds %struct.context, ptr %67, i32 0, i32 1
  %69 = load ptr, ptr %68, align 8
  %70 = getelementptr inbounds %struct._zend_op_array, ptr %69, i32 0, i32 16
  %71 = load ptr, ptr %70, align 8
  %72 = load i32, ptr %11, align 4
  %73 = sext i32 %72 to i64
  %74 = getelementptr inbounds %struct._zend_op, ptr %71, i64 %73
  store ptr %74, ptr %13, align 8
  %75 = load ptr, ptr %13, align 8
  %76 = getelementptr inbounds %struct._zend_op, ptr %75, i32 0, i32 6
  %77 = load i8, ptr %76, align 4
  %78 = zext i8 %77 to i32
  switch i32 %78, label %88 [
    i32 22, label %79
    i32 30, label %79
    i32 23, label %79
    i32 24, label %79
    i32 32, label %79
    i32 25, label %79
    i32 33, label %79
    i32 26, label %79
    i32 27, label %79
    i32 28, label %79
    i32 29, label %79
    i32 34, label %79
    i32 35, label %79
    i32 132, label %79
    i32 133, label %79
    i32 129, label %79
    i32 130, label %79
    i32 131, label %79
    i32 60, label %79
    i32 73, label %79
    i32 160, label %79
    i32 166, label %79
    i32 151, label %79
  ]

79:                                               ; preds = %66, %66, %66, %66, %66, %66, %66, %66, %66, %66, %66, %66, %66, %66, %66, %66, %66, %66, %66, %66, %66, %66, %66
  %80 = load ptr, ptr %13, align 8
  %81 = getelementptr inbounds %struct._zend_op, ptr %80, i32 0, i32 9
  store i8 0, ptr %81, align 1
  %82 = load ptr, ptr %13, align 8
  %83 = getelementptr inbounds %struct._zend_op, ptr %82, i32 0, i32 3
  store i32 0, ptr %83, align 8
  %84 = load ptr, ptr %12, align 8
  %85 = getelementptr inbounds %struct._zend_ssa_op, ptr %84, i32 0, i32 5
  store i32 -1, ptr %85, align 4
  %86 = load ptr, ptr %10, align 8
  %87 = getelementptr inbounds %struct._zend_ssa_var, ptr %86, i32 0, i32 2
  store i32 -1, ptr %87, align 8
  store i1 true, ptr %5, align 1
  br label %92

88:                                               ; preds = %66
  br label %89

89:                                               ; preds = %88
  br label %90

90:                                               ; preds = %89, %50, %45, %31
  br label %91

91:                                               ; preds = %90, %17
  store i1 false, ptr %5, align 1
  br label %92

92:                                               ; preds = %91, %79, %16
  %93 = load i1, ptr %5, align 1
  ret i1 %93
}