; Function Attrs: mustprogress nofree norecurse nosync nounwind willreturn memory(readwrite, inaccessiblemem: none) uwtable
define internal fastcc noundef zeroext i1 @try_remove_var_def(ptr nocapture noundef readonly %0, i32 noundef %1, i32 noundef %2, ptr noundef %3) unnamed_addr #7 {
  %5 = icmp sgt i32 %2, -1
  br i1 %5, label %46, label %6

6:                                                ; preds = %4
  %7 = load ptr, ptr %0, align 8
  %8 = getelementptr inbounds i8, ptr %7, i64 64
  %9 = load ptr, ptr %8, align 8
  %10 = sext i32 %1 to i64
  %11 = getelementptr inbounds %struct._zend_ssa_var, ptr %9, i64 %10
  %12 = getelementptr inbounds i8, ptr %11, i64 8
  %13 = load i32, ptr %12, align 8
  %14 = icmp sgt i32 %13, -1
  br i1 %14, label %15, label %46

15:                                               ; preds = %6
  %16 = getelementptr inbounds i8, ptr %7, i64 56
  %17 = load ptr, ptr %16, align 8
  %18 = zext nneg i32 %13 to i64
  %19 = getelementptr inbounds %struct._zend_ssa_op, ptr %17, i64 %18, i32 5
  %20 = load i32, ptr %19, align 4
  %21 = icmp eq i32 %20, %1
  br i1 %21, label %22, label %46

22:                                               ; preds = %15
  %23 = getelementptr inbounds i8, ptr %11, i64 24
  %24 = load ptr, ptr %23, align 8
  %25 = icmp eq ptr %24, null
  br i1 %25, label %26, label %46

26:                                               ; preds = %22
  %27 = getelementptr inbounds i8, ptr %11, i64 12
  %28 = load i32, ptr %27, align 4
  %29 = sext i32 %28 to i64
  %30 = getelementptr inbounds i8, ptr %0, i64 8
  %31 = load ptr, ptr %30, align 8
  %32 = getelementptr inbounds i8, ptr %31, i64 88
  %33 = load ptr, ptr %32, align 8
  %34 = ptrtoint ptr %3 to i64
  %35 = ptrtoint ptr %33 to i64
  %36 = sub i64 %34, %35
  %37 = ashr exact i64 %36, 5
  %38 = icmp eq i64 %37, %29
  br i1 %38, label %39, label %46

39:                                               ; preds = %26
  %40 = getelementptr inbounds %struct._zend_op, ptr %33, i64 %18
  %41 = getelementptr inbounds i8, ptr %40, i64 28
  %42 = load i8, ptr %41, align 4
  switch i8 %42, label %46 [
    i8 22, label %43
    i8 30, label %43
    i8 23, label %43
    i8 24, label %43
    i8 32, label %43
    i8 25, label %43
    i8 33, label %43
    i8 26, label %43
    i8 27, label %43
    i8 28, label %43
    i8 29, label %43
    i8 34, label %43
    i8 35, label %43
    i8 -124, label %43
    i8 -123, label %43
    i8 -127, label %43
    i8 -126, label %43
    i8 -125, label %43
    i8 60, label %43
    i8 73, label %43
    i8 -96, label %43
    i8 -90, label %43
    i8 -105, label %43
  ]

43:                                               ; preds = %39, %39, %39, %39, %39, %39, %39, %39, %39, %39, %39, %39, %39, %39, %39, %39, %39, %39, %39, %39, %39, %39, %39
  %44 = getelementptr inbounds i8, ptr %40, i64 31
  store i8 0, ptr %44, align 1
  %45 = getelementptr inbounds i8, ptr %40, i64 16
  store i32 0, ptr %45, align 8
  store i32 -1, ptr %19, align 4
  store i32 -1, ptr %12, align 8
  br label %46

46:                                               ; preds = %6, %39, %26, %22, %15, %4, %43
  %.0 = phi i1 [ true, %43 ], [ false, %4 ], [ false, %15 ], [ false, %22 ], [ false, %26 ], [ false, %39 ], [ false, %6 ]
  ret i1 %.0
}